target datalayout = "e-m:e-p270:32:32-p271:32:32-p272:64:64-i64:64-i128:128-f80:128-n8:16:32:64-S128"
target triple = "x86_64-pc-linux-gnu"

%struct.nstime_t = type { i64, i32 }
%struct._address = type { i32, i32, ptr, ptr }
%struct._packet_info = type { ptr, ptr, i32, i32, %struct.nstime_t, %struct.nstime_t, %struct.nstime_t, i8, ptr, ptr, ptr, ptr, %struct._address, %struct._address, %struct._address, %struct._address, %struct._address, %struct._address, i32, ptr, i8, [3 x i8], %struct.anon, i32, i32, i32, i32, ptr, i8, ptr, ptr, i16, i16, i32, i32, i16, i32, i32, ptr, ptr, ptr, i8, i8, i16, i16, i16, i32, i16, i16, ptr, ptr, ptr, ptr, ptr, i32, i32 }
%struct.anon = type { i8, [3 x i8] }
%struct._proto_node = type { ptr, ptr, ptr, ptr, ptr, ptr, ptr }
%struct.field_info = type { ptr, i32, i32, i32, i32, i32, i32, ptr, ptr, ptr, i32, i32 }
%struct.wscbor_chunk_t = type { ptr, i32, i32, i32, ptr, ptr, i32, i8, i64 }

@hf_bundle_age_time = internal global i32 0, align 4
@hf_bundle_age_exp = internal global i32 0, align 4

; Function Attrs: inlinehint nounwind null_pointer_is_valid sspstrong uwtable
define internal void @proto_item_set_generated(ptr noundef %0) #4 {
  %2 = alloca ptr, align 8
  store ptr %0, ptr %2, align 8
  %3 = load ptr, ptr %2, align 8
  %4 = icmp ne ptr %3, null
  br i1 %4, label %5, label %24

5:                                                ; preds = %1
  br label %6

6:                                                ; preds = %5
  %7 = load ptr, ptr %2, align 8
  %8 = getelementptr inbounds nuw %struct._proto_node, ptr %7, i32 0, i32 5
  %9 = load ptr, ptr %8, align 8
  %10 = icmp ne ptr %9, null
  br i1 %10, label %11, label %22

11:                                               ; preds = %6
  %12 = load ptr, ptr %2, align 8
  %13 = getelementptr inbounds nuw %struct._proto_node, ptr %12, i32 0, i32 5
  %14 = load ptr, ptr %13, align 8
  %15 = getelementptr inbounds nuw %struct.field_info, ptr %14, i32 0, i32 6
  %16 = load i32, ptr %15, align 4
  %17 = or i32 %16, 2
  %18 = load ptr, ptr %2, align 8
  %19 = getelementptr inbounds nuw %struct._proto_node, ptr %18, i32 0, i32 5
  %20 = load ptr, ptr %19, align 8
  %21 = getelementptr inbounds nuw %struct.field_info, ptr %20, i32 0, i32 6
  store i32 %17, ptr %21, align 4
  br label %22

22:                                               ; preds = %11, %6
  br label %23

23:                                               ; preds = %22
  br label %24

24:                                               ; preds = %23, %1
  ret void
}

; Function Attrs: nounwind null_pointer_is_valid sspstrong uwtable
define internal { i64, i32 } @dtn_to_delta(i64 noundef %0) #0 {
  %2 = alloca %struct.nstime_t, align 8
  %3 = alloca i64, align 8
  store i64 %0, ptr %3, align 8
  %4 = load i64, ptr %3, align 8
  %5 = sdiv i64 %4, 1000
  %6 = getelementptr inbounds nuw %struct.nstime_t, ptr %2, i32 0, i32 0
  store i64 %5, ptr %6, align 8
  %7 = load i64, ptr %3, align 8
  %8 = srem i64 %7, 1000
  %9 = mul i64 1000000, %8
  %10 = trunc i64 %9 to i32
  %11 = getelementptr inbounds nuw %struct.nstime_t, ptr %2, i32 0, i32 1
  store i32 %10, ptr %11, align 8
  %12 = load { i64, i32 }, ptr %2, align 8
  ret { i64, i32 } %12
}

; Function Attrs: null_pointer_is_valid sspstrong uwtable
define internal i32 @dissect_block_bundle_age(ptr noundef %0, ptr noundef %1, ptr noundef %2, ptr noundef %3) #2 {
  %5 = alloca ptr, align 8
  %6 = alloca ptr, align 8
  %7 = alloca ptr, align 8
  %8 = alloca ptr, align 8
  %9 = alloca i32, align 4
  %10 = alloca ptr, align 8
  %11 = alloca ptr, align 8
  %12 = alloca %struct.nstime_t, align 8
  %13 = alloca ptr, align 8
  store ptr %0, ptr %5, align 8
  store ptr %1, ptr %6, align 8
  store ptr %2, ptr %7, align 8
  store ptr %3, ptr %8, align 8
  call void @llvm.lifetime.start.p0(i64 4, ptr %9) #18
  store i32 0, ptr %9, align 4
  call void @llvm.lifetime.start.p0(i64 8, ptr %10) #18
  %14 = load ptr, ptr %6, align 8
  %15 = getelementptr inbounds nuw %struct._packet_info, ptr %14, i32 0, i32 51
  %16 = load ptr, ptr %15, align 8
  %17 = load ptr, ptr %5, align 8
  %18 = call ptr @wscbor_chunk_read(ptr noundef %16, ptr noundef %17, ptr noundef %9)
  store ptr %18, ptr %10, align 8
  call void @llvm.lifetime.start.p0(i64 8, ptr %11) #18
  %19 = load ptr, ptr %6, align 8
  %20 = getelementptr inbounds nuw %struct._packet_info, ptr %19, i32 0, i32 51
  %21 = load ptr, ptr %20, align 8
  %22 = load ptr, ptr %10, align 8
  %23 = call ptr @wscbor_require_uint64(ptr noundef %21, ptr noundef %22)
  store ptr %23, ptr %11, align 8
  %24 = load ptr, ptr %7, align 8
  %25 = load i32, ptr @hf_bundle_age_time, align 4
  %26 = load ptr, ptr %6, align 8
  %27 = load ptr, ptr %5, align 8
  %28 = load ptr, ptr %10, align 8
  %29 = load ptr, ptr %11, align 8
  %30 = call ptr @proto_tree_add_cbor_uint64(ptr noundef %24, i32 noundef %25, ptr noundef %26, ptr noundef %27, ptr noundef %28, ptr noundef %29)
  %31 = load ptr, ptr %11, align 8
  %32 = icmp ne ptr %31, null
  br i1 %32, label %33, label %52

33:                                               ; preds = %4
  call void @llvm.lifetime.start.p0(i64 16, ptr %12) #18
  %34 = load ptr, ptr %11, align 8
  %35 = load i64, ptr %34, align 8
  %36 = call { i64, i32 } @dtn_to_delta(i64 noundef %35)
  %37 = getelementptr inbounds nuw { i64, i32 }, ptr %12, i32 0, i32 0
  %38 = extractvalue { i64, i32 } %36, 0
  store i64 %38, ptr %37, align 8
  %39 = getelementptr inbounds nuw { i64, i32 }, ptr %12, i32 0, i32 1
  %40 = extractvalue { i64, i32 } %36, 1
  store i32 %40, ptr %39, align 8
  call void @llvm.lifetime.start.p0(i64 8, ptr %13) #18
  %41 = load ptr, ptr %7, align 8
  %42 = load i32, ptr @hf_bundle_age_exp, align 4
  %43 = load ptr, ptr %5, align 8
  %44 = load ptr, ptr %10, align 8
  %45 = getelementptr inbounds nuw %struct.wscbor_chunk_t, ptr %44, i32 0, i32 1
  %46 = load i32, ptr %45, align 8
  %47 = load ptr, ptr %10, align 8
  %48 = getelementptr inbounds nuw %struct.wscbor_chunk_t, ptr %47, i32 0, i32 3
  %49 = load i32, ptr %48, align 8
  %50 = call ptr @proto_tree_add_time(ptr noundef %41, i32 noundef %42, ptr noundef %43, i32 noundef %46, i32 noundef %49, ptr noundef %12)
  store ptr %50, ptr %13, align 8
  %51 = load ptr, ptr %13, align 8
  call void @proto_item_set_generated(ptr noundef %51)
  call void @llvm.lifetime.end.p0(i64 8, ptr %13) #18
  call void @llvm.lifetime.end.p0(i64 16, ptr %12) #18
  br label %52

52:                                               ; preds = %33, %4
  %53 = load i32, ptr %9, align 4
  call void @llvm.lifetime.end.p0(i64 8, ptr %11) #18
  call void @llvm.lifetime.end.p0(i64 8, ptr %10) #18
  call void @llvm.lifetime.end.p0(i64 4, ptr %9) #18
  ret i32 %53
}