; Function Attrs: null_pointer_is_valid sspstrong uwtable
define internal i32 @dissect_block_bundle_age(ptr noundef %0, ptr noundef %1, ptr noundef %2, ptr readnone captures(none) %3) #2 {
  %5 = alloca i32, align 4
  %6 = alloca %struct.nstime_t, align 8
  call void @llvm.lifetime.start.p0(i64 4, ptr nonnull %5) #19
  store i32 0, ptr %5, align 4
  %7 = getelementptr inbounds nuw i8, ptr %1, i64 408
  %8 = load ptr, ptr %7, align 8
  %9 = call ptr @wscbor_chunk_read(ptr noundef %8, ptr noundef %0, ptr noundef nonnull %5)
  %10 = load ptr, ptr %7, align 8
  %11 = call ptr @wscbor_require_uint64(ptr noundef %10, ptr noundef %9)
  %12 = load i32, ptr @hf_bundle_age_time, align 4
  %13 = call ptr @proto_tree_add_cbor_uint64(ptr noundef %2, i32 noundef %12, ptr noundef %1, ptr noundef %0, ptr noundef %9, ptr noundef %11)
  %.not = icmp eq ptr %11, null
  br i1 %.not, label %34, label %14

14:                                               ; preds = %4
  call void @llvm.lifetime.start.p0(i64 16, ptr nonnull %6) #19
  %15 = load i64, ptr %11, align 8
  %16 = sdiv i64 %15, 1000
  %17 = srem i64 %15, 1000
  %18 = trunc nsw i64 %17 to i32
  %19 = mul nsw i32 %18, 1000000
  store i64 %16, ptr %6, align 8
  %20 = getelementptr inbounds nuw i8, ptr %6, i64 8
  store i32 %19, ptr %20, align 8
  %21 = load i32, ptr @hf_bundle_age_exp, align 4
  %22 = getelementptr inbounds nuw i8, ptr %9, i64 8
  %23 = load i32, ptr %22, align 8
  %24 = getelementptr inbounds nuw i8, ptr %9, i64 16
  %25 = load i32, ptr %24, align 8
  %26 = call ptr @proto_tree_add_time(ptr noundef %2, i32 noundef %21, ptr noundef %0, i32 noundef %23, i32 noundef %25, ptr noundef nonnull %6)
  %.not.i = icmp eq ptr %26, null
  br i1 %.not.i, label %proto_item_set_generated.exit, label %27

27:                                               ; preds = %14
  %28 = getelementptr inbounds nuw i8, ptr %26, i64 40
  %29 = load ptr, ptr %28, align 8
  %.not5.i = icmp eq ptr %29, null
  br i1 %.not5.i, label %proto_item_set_generated.exit, label %30

30:                                               ; preds = %27
  %31 = getelementptr inbounds nuw i8, ptr %29, i64 28
  %32 = load i32, ptr %31, align 4
  %33 = or i32 %32, 2
  store i32 %33, ptr %31, align 4
  br label %proto_item_set_generated.exit

proto_item_set_generated.exit:                    ; preds = %14, %27, %30
  call void @llvm.lifetime.end.p0(i64 16, ptr nonnull %6) #19
  br label %34

34:                                               ; preds = %proto_item_set_generated.exit, %4
  %35 = load i32, ptr %5, align 4
  call void @llvm.lifetime.end.p0(i64 4, ptr nonnull %5) #19
  ret i32 %35
}